target datalayout = "e-m:e-p270:32:32-p271:32:32-p272:64:64-i64:64-i128:128-f80:128-n8:16:32:64-S128"
target triple = "x86_64-pc-linux-gnu"

%struct.dump_arg = type { i64, i64, ptr, ptr, ptr, ptr, i64 }

; Function Attrs: nounwind sspstrong uwtable
define internal void @mark_dump_arg(ptr noundef %0) #0 {
  %2 = alloca ptr, align 8
  %3 = alloca ptr, align 8
  %4 = alloca i32, align 4
  store ptr %0, ptr %2, align 8, !tbaa !11
  call void @llvm.lifetime.start.p0(i64 8, ptr %3) #23
  %5 = load ptr, ptr %2, align 8, !tbaa !11
  store ptr %5, ptr %3, align 8, !tbaa !39
  %6 = load ptr, ptr %3, align 8, !tbaa !39
  %7 = getelementptr inbounds nuw %struct.dump_arg, ptr %6, i32 0, i32 2
  %8 = load ptr, ptr %7, align 8, !tbaa !43
  %9 = icmp ne ptr %8, null
  br i1 %9, label %11, label %10

10:                                               ; preds = %1
  store i32 1, ptr %4, align 4
  br label %24

11:                                               ; preds = %1
  %12 = load ptr, ptr %3, align 8, !tbaa !39
  %13 = getelementptr inbounds nuw %struct.dump_arg, ptr %12, i32 0, i32 2
  %14 = load ptr, ptr %13, align 8, !tbaa !43
  call void @rb_mark_set(ptr noundef %14)
  %15 = load ptr, ptr %3, align 8, !tbaa !39
  %16 = getelementptr inbounds nuw %struct.dump_arg, ptr %15, i32 0, i32 3
  %17 = load ptr, ptr %16, align 8, !tbaa !44
  call void @rb_mark_set(ptr noundef %17)
  %18 = load ptr, ptr %3, align 8, !tbaa !39
  %19 = getelementptr inbounds nuw %struct.dump_arg, ptr %18, i32 0, i32 4
  %20 = load ptr, ptr %19, align 8, !tbaa !46
  call void @rb_mark_hash(ptr noundef %20)
  %21 = load ptr, ptr %3, align 8, !tbaa !39
  %22 = getelementptr inbounds nuw %struct.dump_arg, ptr %21, i32 0, i32 0
  %23 = load i64, ptr %22, align 8, !tbaa !48
  call void @rb_gc_mark(i64 noundef %23)
  store i32 0, ptr %4, align 4
  br label %24

24:                                               ; preds = %11, %10
  call void @llvm.lifetime.end.p0(i64 8, ptr %3) #23
  %25 = load i32, ptr %4, align 4
  switch i32 %25, label %27 [
    i32 0, label %26
    i32 1, label %26
  ]

26:                                               ; preds = %24, %24
  ret void

27:                                               ; preds = %24
  unreachable
}