; Function Attrs: nounwind sspstrong uwtable
define internal void @mark_dump_arg(ptr noundef readonly captures(none) %0) #0 {
  %2 = getelementptr inbounds nuw i8, ptr %0, i64 16
  %3 = load ptr, ptr %2, align 8, !tbaa !38
  %.not = icmp eq ptr %3, null
  br i1 %.not, label %10, label %4

4:                                                ; preds = %1
  tail call void @rb_mark_set(ptr noundef nonnull %3) #22
  %5 = getelementptr inbounds nuw i8, ptr %0, i64 24
  %6 = load ptr, ptr %5, align 8, !tbaa !39
  tail call void @rb_mark_set(ptr noundef %6) #22
  %7 = getelementptr inbounds nuw i8, ptr %0, i64 32
  %8 = load ptr, ptr %7, align 8, !tbaa !44
  tail call void @rb_mark_hash(ptr noundef %8) #22
  %9 = load i64, ptr %0, align 8, !tbaa !40
  tail call void @rb_gc_mark(i64 noundef %9) #22
  br label %10

10:                                               ; preds = %1, %4
  ret void
}